; Function Attrs: nounwind uwtable
define void @Wln_NtkStaticFanoutTest(ptr noundef initializes((252, 256)) %0) local_unnamed_addr #0 {
  %2 = getelementptr i8, ptr %0, i64 76
  %.val18 = load i32, ptr %2, align 4, !tbaa !21
  %3 = load ptr, ptr %0, align 8, !tbaa !3
  %4 = tail call i32 (ptr, ...) @printf(ptr noundef nonnull dereferenceable(1) @.str.12, i32 noundef %.val18, ptr noundef %3)
  tail call void @Wln_NtkStaticFanoutStart(ptr noundef nonnull %0)
  %.val23 = load i32, ptr %2, align 4, !tbaa !21
  %5 = icmp sgt i32 %.val23, 1
  br i1 %5, label %.lr.ph25, label %._crit_edge

.lr.ph25:                                         ; preds = %1
  %6 = getelementptr i8, ptr %0, i64 256
  %7 = getelementptr i8, ptr %0, i64 272
  br label %8

8:                                                ; preds = %.lr.ph25, %.critedge
  %indvars.iv27 = phi i64 [ 1, %.lr.ph25 ], [ %indvars.iv.next28, %.critedge ]
  %9 = trunc nuw nsw i64 %indvars.iv27 to i32
  tail call void @Wln_ObjPrint(ptr noundef nonnull %0, i32 noundef %9) #18
  %10 = tail call i32 (ptr, ...) @printf(ptr noundef nonnull dereferenceable(1) @.str.13)
  %.val1921 = load ptr, ptr %6, align 8, !tbaa !17
  %11 = getelementptr inbounds nuw i32, ptr %.val1921, i64 %indvars.iv27
  %12 = load i32, ptr %11, align 4, !tbaa !22
  %13 = icmp sgt i32 %12, 0
  br i1 %13, label %.lr.ph, label %.critedge

.lr.ph:                                           ; preds = %8, %.lr.ph
  %indvars.iv = phi i64 [ %indvars.iv.next, %.lr.ph ], [ 0, %8 ]
  %.val20 = load ptr, ptr %7, align 8, !tbaa !17
  %14 = getelementptr inbounds nuw i32, ptr %.val20, i64 %indvars.iv27
  %15 = load i32, ptr %14, align 4, !tbaa !22
  %16 = sext i32 %15 to i64
  %17 = getelementptr inbounds i32, ptr %.val20, i64 %16
  %18 = getelementptr inbounds nuw i32, ptr %17, i64 %indvars.iv
  %19 = load i32, ptr %18, align 4, !tbaa !22
  %20 = tail call i32 (ptr, ...) @printf(ptr noundef nonnull dereferenceable(1) @.str.14, i32 noundef %19)
  %indvars.iv.next = add nuw nsw i64 %indvars.iv, 1
  %.val19 = load ptr, ptr %6, align 8, !tbaa !17
  %21 = getelementptr inbounds nuw i32, ptr %.val19, i64 %indvars.iv27
  %22 = load i32, ptr %21, align 4, !tbaa !22
  %23 = sext i32 %22 to i64
  %24 = icmp slt i64 %indvars.iv.next, %23
  br i1 %24, label %.lr.ph, label %.critedge, !llvm.loop !110

.critedge:                                        ; preds = %.lr.ph, %8
  %putchar17 = tail call i32 @putchar(i32 10)
  %indvars.iv.next28 = add nuw nsw i64 %indvars.iv27, 1
  %.val = load i32, ptr %2, align 4, !tbaa !21
  %25 = sext i32 %.val to i64
  %26 = icmp slt i64 %indvars.iv.next28, %25
  br i1 %26, label %8, label %._crit_edge, !llvm.loop !111

._crit_edge:                                      ; preds = %.critedge, %1
  %27 = getelementptr inbounds nuw i8, ptr %0, i64 248
  %28 = getelementptr inbounds nuw i8, ptr %0, i64 256
  %29 = load ptr, ptr %28, align 8, !tbaa !17
  %.not.i.i = icmp eq ptr %29, null
  br i1 %.not.i.i, label %Vec_IntErase.exit.i, label %30

30:                                               ; preds = %._crit_edge
  tail call void @free(ptr noundef nonnull %29) #18
  store ptr null, ptr %28, align 8, !tbaa !17
  br label %Vec_IntErase.exit.i

Vec_IntErase.exit.i:                              ; preds = %30, %._crit_edge
  %31 = getelementptr inbounds nuw i8, ptr %0, i64 252
  store i32 0, ptr %31, align 4, !tbaa !21
  store i32 0, ptr %27, align 8, !tbaa !18
  %32 = getelementptr inbounds nuw i8, ptr %0, i64 272
  %33 = load ptr, ptr %32, align 8, !tbaa !17
  %.not.i2.i = icmp eq ptr %33, null
  br i1 %.not.i2.i, label %Wln_NtkStaticFanoutStop.exit, label %34

34:                                               ; preds = %Vec_IntErase.exit.i
  tail call void @free(ptr noundef nonnull %33) #18
  store ptr null, ptr %32, align 8, !tbaa !17
  br label %Wln_NtkStaticFanoutStop.exit

Wln_NtkStaticFanoutStop.exit:                     ; preds = %Vec_IntErase.exit.i, %34
  %35 = getelementptr inbounds nuw i8, ptr %0, i64 264
  %36 = getelementptr inbounds nuw i8, ptr %0, i64 268
  store i32 0, ptr %36, align 4, !tbaa !21
  store i32 0, ptr %35, align 8, !tbaa !18
  %putchar = tail call i32 @putchar(i32 10)
  ret void
}